target datalayout = "e-m:e-p270:32:32-p271:32:32-p272:64:64-i64:64-i128:128-f80:128-n8:16:32:64-S128"
target triple = "x86_64-unknown-linux-gnu"

%"class.std::__cxx11::basic_string" = type { %"struct.std::__cxx11::basic_string<char>::_Alloc_hider", i64, %union.anon }
%"struct.std::__cxx11::basic_string<char>::_Alloc_hider" = type { ptr }
%union.anon = type { i64, [8 x i8] }
%"class.YAML::SingleDocParser" = type { i32, ptr, ptr, %"class.std::unique_ptr", %"class.std::map", i64 }
%"class.std::unique_ptr" = type { %"struct.std::__uniq_ptr_data" }
%"struct.std::__uniq_ptr_data" = type { %"class.std::__uniq_ptr_impl" }
%"class.std::__uniq_ptr_impl" = type { %"class.std::tuple" }
%"class.std::tuple" = type { %"struct.std::_Tuple_impl" }
%"struct.std::_Tuple_impl" = type { %"struct.std::_Head_base.1" }
%"struct.std::_Head_base.1" = type { ptr }
%"class.std::map" = type { %"class.std::_Rb_tree" }
%"class.std::_Rb_tree" = type { %"struct.std::_Rb_tree<std::__cxx11::basic_string<char>, std::pair<const std::__cxx11::basic_string<char>, unsigned long>, std::_Select1st<std::pair<const std::__cxx11::basic_string<char>, unsigned long>>, std::less<std::__cxx11::basic_string<char>>>::_Rb_tree_impl" }
%"struct.std::_Rb_tree<std::__cxx11::basic_string<char>, std::pair<const std::__cxx11::basic_string<char>, unsigned long>, std::_Select1st<std::pair<const std::__cxx11::basic_string<char>, unsigned long>>, std::less<std::__cxx11::basic_string<char>>>::_Rb_tree_impl" = type { %"struct.std::_Rb_tree_key_compare", %"struct.std::_Rb_tree_header" }
%"struct.std::_Rb_tree_key_compare" = type { %"struct.std::less" }
%"struct.std::less" = type { i8 }
%"struct.std::_Rb_tree_header" = type { %"struct.std::_Rb_tree_node_base", i64 }
%"struct.std::_Rb_tree_node_base" = type { i32, ptr, ptr, ptr }
%"struct.YAML::Token" = type <{ i32, i32, %"struct.YAML::Mark", [4 x i8], %"class.std::__cxx11::basic_string", %"class.std::vector.41", i32, [4 x i8] }>
%"struct.YAML::Mark" = type { i32, i32, i32 }
%"class.std::vector.41" = type { %"struct.std::_Vector_base.42" }
%"struct.std::_Vector_base.42" = type { %"struct.std::_Vector_base<std::__cxx11::basic_string<char>, std::allocator<std::__cxx11::basic_string<char>>>::_Vector_impl" }
%"struct.std::_Vector_base<std::__cxx11::basic_string<char>, std::allocator<std::__cxx11::basic_string<char>>>::_Vector_impl" = type { %"struct.std::_Vector_base<std::__cxx11::basic_string<char>, std::allocator<std::__cxx11::basic_string<char>>>::_Vector_impl_data" }
%"struct.std::_Vector_base<std::__cxx11::basic_string<char>, std::allocator<std::__cxx11::basic_string<char>>>::_Vector_impl_data" = type { ptr, ptr, ptr }

; Function Attrs: mustprogress uwtable
define void @_ZN4YAML15SingleDocParser15ParsePropertiesERNSt7__cxx1112basic_stringIcSt11char_traitsIcESaIcEEERmS7_(ptr noundef nonnull align 8 dereferenceable(88) %this, ptr noundef nonnull align 8 dereferenceable(32) %tag, ptr noundef nonnull align 8 dereferenceable(8) %anchor, ptr noundef nonnull align 8 dereferenceable(32) %anchor_name) #4 align 2 {
entry:
  %this.addr = alloca ptr, align 8
  %tag.addr = alloca ptr, align 8
  %anchor.addr = alloca ptr, align 8
  %anchor_name.addr = alloca ptr, align 8
  store ptr %this, ptr %this.addr, align 8
  store ptr %tag, ptr %tag.addr, align 8
  store ptr %anchor, ptr %anchor.addr, align 8
  store ptr %anchor_name, ptr %anchor_name.addr, align 8
  %this1 = load ptr, ptr %this.addr, align 8
  %0 = load ptr, ptr %tag.addr, align 8
  call void @_ZNSt7__cxx1112basic_stringIcSt11char_traitsIcESaIcEE5clearEv(ptr noundef nonnull align 8 dereferenceable(32) %0) #3
  %1 = load ptr, ptr %anchor_name.addr, align 8
  call void @_ZNSt7__cxx1112basic_stringIcSt11char_traitsIcESaIcEE5clearEv(ptr noundef nonnull align 8 dereferenceable(32) %1) #3
  %2 = load ptr, ptr %anchor.addr, align 8
  store i64 0, ptr %2, align 8
  br label %while.body

while.body:                                       ; preds = %sw.epilog, %entry
  %m_scanner = getelementptr inbounds %"class.YAML::SingleDocParser", ptr %this1, i32 0, i32 1
  %3 = load ptr, ptr %m_scanner, align 8
  %call = call noundef zeroext i1 @_ZN4YAML7Scanner5emptyEv(ptr noundef nonnull align 8 dereferenceable(480) %3)
  br i1 %call, label %if.then, label %if.end

if.then:                                          ; preds = %while.body
  br label %return

if.end:                                           ; preds = %while.body
  %m_scanner2 = getelementptr inbounds %"class.YAML::SingleDocParser", ptr %this1, i32 0, i32 1
  %4 = load ptr, ptr %m_scanner2, align 8
  %call3 = call noundef nonnull align 8 dereferenceable(84) ptr @_ZN4YAML7Scanner4peekEv(ptr noundef nonnull align 8 dereferenceable(480) %4)
  %type = getelementptr inbounds %"struct.YAML::Token", ptr %call3, i32 0, i32 1
  %5 = load i32, ptr %type, align 4
  switch i32 %5, label %sw.default [
    i32 18, label %sw.bb
    i32 16, label %sw.bb4
  ]

sw.bb:                                            ; preds = %if.end
  %6 = load ptr, ptr %tag.addr, align 8
  call void @_ZN4YAML15SingleDocParser8ParseTagERNSt7__cxx1112basic_stringIcSt11char_traitsIcESaIcEEE(ptr noundef nonnull align 8 dereferenceable(88) %this1, ptr noundef nonnull align 8 dereferenceable(32) %6)
  br label %sw.epilog

sw.bb4:                                           ; preds = %if.end
  %7 = load ptr, ptr %anchor.addr, align 8
  %8 = load ptr, ptr %anchor_name.addr, align 8
  call void @_ZN4YAML15SingleDocParser11ParseAnchorERmRNSt7__cxx1112basic_stringIcSt11char_traitsIcESaIcEEE(ptr noundef nonnull align 8 dereferenceable(88) %this1, ptr noundef nonnull align 8 dereferenceable(8) %7, ptr noundef nonnull align 8 dereferenceable(32) %8)
  br label %sw.epilog

sw.default:                                       ; preds = %if.end
  br label %return

sw.epilog:                                        ; preds = %sw.bb4, %sw.bb
  br label %while.body, !llvm.loop !6

return:                                           ; preds = %sw.default, %if.then
  ret void
}