; Function Attrs: mustprogress uwtable
define void @_ZN4YAML15SingleDocParser15ParsePropertiesERNSt7__cxx1112basic_stringIcSt11char_traitsIcESaIcEEERmS7_(ptr noundef nonnull align 8 dereferenceable(88) %this, ptr noundef nonnull align 8 dereferenceable(32) %tag, ptr nocapture noundef nonnull align 8 dereferenceable(8) %anchor, ptr noundef nonnull align 8 dereferenceable(32) %anchor_name) local_unnamed_addr #4 align 2 {
entry:
  tail call void @_ZNSt7__cxx1112basic_stringIcSt11char_traitsIcESaIcEE5clearEv(ptr noundef nonnull align 8 dereferenceable(32) %tag) #16
  tail call void @_ZNSt7__cxx1112basic_stringIcSt11char_traitsIcESaIcEE5clearEv(ptr noundef nonnull align 8 dereferenceable(32) %anchor_name) #16
  store i64 0, ptr %anchor, align 8
  %m_scanner = getelementptr inbounds i8, ptr %this, i64 8
  %0 = load ptr, ptr %m_scanner, align 8
  %call4 = tail call noundef zeroext i1 @_ZN4YAML7Scanner5emptyEv(ptr noundef nonnull align 8 dereferenceable(480) %0)
  br i1 %call4, label %return, label %if.end

if.end:                                           ; preds = %entry, %sw.epilog
  %1 = load ptr, ptr %m_scanner, align 8
  %call3 = tail call noundef nonnull align 8 dereferenceable(84) ptr @_ZN4YAML7Scanner4peekEv(ptr noundef nonnull align 8 dereferenceable(480) %1)
  %type = getelementptr inbounds i8, ptr %call3, i64 4
  %2 = load i32, ptr %type, align 4
  switch i32 %2, label %return [
    i32 18, label %sw.bb
    i32 16, label %sw.bb4
  ]

sw.bb:                                            ; preds = %if.end
  tail call void @_ZN4YAML15SingleDocParser8ParseTagERNSt7__cxx1112basic_stringIcSt11char_traitsIcESaIcEEE(ptr noundef nonnull align 8 dereferenceable(88) %this, ptr noundef nonnull align 8 dereferenceable(32) %tag)
  br label %sw.epilog

sw.bb4:                                           ; preds = %if.end
  tail call void @_ZN4YAML15SingleDocParser11ParseAnchorERmRNSt7__cxx1112basic_stringIcSt11char_traitsIcESaIcEEE(ptr noundef nonnull align 8 dereferenceable(88) %this, ptr noundef nonnull align 8 dereferenceable(8) %anchor, ptr noundef nonnull align 8 dereferenceable(32) %anchor_name)
  br label %sw.epilog

sw.epilog:                                        ; preds = %sw.bb4, %sw.bb
  %3 = load ptr, ptr %m_scanner, align 8
  %call = tail call noundef zeroext i1 @_ZN4YAML7Scanner5emptyEv(ptr noundef nonnull align 8 dereferenceable(480) %3)
  br i1 %call, label %return, label %if.end, !llvm.loop !11

return:                                           ; preds = %sw.epilog, %if.end, %entry
  ret void
}